; Function Attrs: mustprogress uwtable
define hidden void @_ZN3sat16clause_allocator10del_clauseEPNS_6clauseE(ptr noundef nonnull align 8 dereferenceable(568) %this, ptr noundef %cls) local_unnamed_addr #8 align 2 {
entry:
  %0 = load i32, ptr %cls, align 4
  %call.i = tail call noundef zeroext i1 @_ZN6memory16is_out_of_memoryEv()
  br i1 %call.i, label %_ZN6id_gen7recycleEj.exit, label %if.end.i

if.end.i:                                         ; preds = %entry
  %m_free_ids.i = getelementptr inbounds i8, ptr %this, i64 560
  %1 = load ptr, ptr %m_free_ids.i, align 8
  %cmp.i.i = icmp eq ptr %1, null
  br i1 %cmp.i.i, label %if.then.i.i, label %lor.lhs.false.i.i

lor.lhs.false.i.i:                                ; preds = %if.end.i
  %arrayidx.i.i = getelementptr inbounds i8, ptr %1, i64 -4
  %2 = load i32, ptr %arrayidx.i.i, align 4
  %arrayidx4.i.i = getelementptr inbounds i8, ptr %1, i64 -8
  %3 = load i32, ptr %arrayidx4.i.i, align 4
  %cmp5.i.i = icmp eq i32 %2, %3
  br i1 %cmp5.i.i, label %if.then.i.i, label %_ZN6vectorIjLb0EjE9push_backERKj.exit.i

if.then.i.i:                                      ; preds = %lor.lhs.false.i.i, %if.end.i
  tail call void @_ZN6vectorIjLb0EjE13expand_vectorEv(ptr noundef nonnull align 8 dereferenceable(8) %m_free_ids.i)
  %.pre.i.i = load ptr, ptr %m_free_ids.i, align 8
  %arrayidx8.phi.trans.insert.i.i = getelementptr inbounds i8, ptr %.pre.i.i, i64 -4
  %.pre1.i.i = load i32, ptr %arrayidx8.phi.trans.insert.i.i, align 4
  br label %_ZN6vectorIjLb0EjE9push_backERKj.exit.i

_ZN6vectorIjLb0EjE9push_backERKj.exit.i:          ; preds = %if.then.i.i, %lor.lhs.false.i.i
  %4 = phi i32 [ %.pre1.i.i, %if.then.i.i ], [ %2, %lor.lhs.false.i.i ]
  %5 = phi ptr [ %.pre.i.i, %if.then.i.i ], [ %1, %lor.lhs.false.i.i ]
  %idx.ext.i.i = zext i32 %4 to i64
  %add.ptr.i.i = getelementptr inbounds i32, ptr %5, i64 %idx.ext.i.i
  store i32 %0, ptr %add.ptr.i.i, align 4
  %6 = load ptr, ptr %m_free_ids.i, align 8
  %arrayidx10.i.i = getelementptr inbounds i8, ptr %6, i64 -4
  %7 = load i32, ptr %arrayidx10.i.i, align 4
  %inc.i.i = add i32 %7, 1
  store i32 %inc.i.i, ptr %arrayidx10.i.i, align 4
  br label %_ZN6id_gen7recycleEj.exit

_ZN6id_gen7recycleEj.exit:                        ; preds = %entry, %_ZN6vectorIjLb0EjE9push_backERKj.exit.i
  %m_capacity = getelementptr inbounds i8, ptr %cls, i64 8
  %8 = load i32, ptr %m_capacity, align 4
  %conv.i = zext i32 %8 to i64
  %mul.i = shl nuw nsw i64 %conv.i, 2
  %add.i = add nuw nsw i64 %mul.i, 20
  %m_alloc_size.i = getelementptr inbounds i8, ptr %this, i64 8
  %9 = load i64, ptr %m_alloc_size.i, align 8
  %sub.i = sub i64 %9, %add.i
  store i64 %sub.i, ptr %m_alloc_size.i, align 8
  %cmp.i = icmp ugt i32 %8, 122
  br i1 %cmp.i, label %if.then.i, label %if.else.i

if.then.i:                                        ; preds = %_ZN6id_gen7recycleEj.exit
  tail call void @_ZN6memory10deallocateEPv(ptr noundef nonnull %cls)
  br label %_ZN13sat_allocator10deallocateEmPv.exit

if.else.i:                                        ; preds = %_ZN6id_gen7recycleEj.exit
  %m_free.i = getelementptr inbounds i8, ptr %this, i64 32
  %shr.i.i = lshr i64 %add.i, 3
  %and.i.i = lshr exact i64 %add.i, 2
  %and.i.i.lobit = and i64 %and.i.i, 1
  %add.i.i = add nuw nsw i64 %and.i.i.lobit, %shr.i.i
  %arrayidx.i = getelementptr inbounds [65 x %class.ptr_vector.1], ptr %m_free.i, i64 0, i64 %add.i.i
  %10 = load ptr, ptr %arrayidx.i, align 8
  %cmp.i.i3 = icmp eq ptr %10, null
  br i1 %cmp.i.i3, label %if.then.i.i13, label %lor.lhs.false.i.i4

lor.lhs.false.i.i4:                               ; preds = %if.else.i
  %arrayidx.i.i5 = getelementptr inbounds i8, ptr %10, i64 -4
  %11 = load i32, ptr %arrayidx.i.i5, align 4
  %arrayidx4.i.i6 = getelementptr inbounds i8, ptr %10, i64 -8
  %12 = load i32, ptr %arrayidx4.i.i6, align 4
  %cmp5.i.i7 = icmp eq i32 %11, %12
  br i1 %cmp5.i.i7, label %if.then.i.i13, label %_ZN6vectorIPvLb0EjE9push_backERKS0_.exit.i

if.then.i.i13:                                    ; preds = %lor.lhs.false.i.i4, %if.else.i
  tail call void @_ZN6vectorIPvLb0EjE13expand_vectorEv(ptr noundef nonnull align 8 dereferenceable(8) %arrayidx.i)
  %.pre.i.i14 = load ptr, ptr %arrayidx.i, align 8
  %arrayidx8.phi.trans.insert.i.i15 = getelementptr inbounds i8, ptr %.pre.i.i14, i64 -4
  %.pre1.i.i16 = load i32, ptr %arrayidx8.phi.trans.insert.i.i15, align 4
  br label %_ZN6vectorIPvLb0EjE9push_backERKS0_.exit.i

_ZN6vectorIPvLb0EjE9push_backERKS0_.exit.i:       ; preds = %if.then.i.i13, %lor.lhs.false.i.i4
  %13 = phi i32 [ %.pre1.i.i16, %if.then.i.i13 ], [ %11, %lor.lhs.false.i.i4 ]
  %14 = phi ptr [ %.pre.i.i14, %if.then.i.i13 ], [ %10, %lor.lhs.false.i.i4 ]
  %idx.ext.i.i8 = zext i32 %13 to i64
  %add.ptr.i.i9 = getelementptr inbounds ptr, ptr %14, i64 %idx.ext.i.i8
  store ptr %cls, ptr %add.ptr.i.i9, align 8
  %15 = load ptr, ptr %arrayidx.i, align 8
  %arrayidx10.i.i10 = getelementptr inbounds i8, ptr %15, i64 -4
  %16 = load i32, ptr %arrayidx10.i.i10, align 4
  %inc.i.i11 = add i32 %16, 1
  store i32 %inc.i.i11, ptr %arrayidx10.i.i10, align 4
  br label %_ZN13sat_allocator10deallocateEmPv.exit

_ZN13sat_allocator10deallocateEmPv.exit:          ; preds = %if.then.i, %_ZN6vectorIPvLb0EjE9push_backERKS0_.exit.i
  ret void
}